target datalayout = "e-m:e-p270:32:32-p271:32:32-p272:64:64-i64:64-i128:128-f80:128-n8:16:32:64-S128"
target triple = "x86_64-pc-linux-gnu"

%struct._php_core_globals = type { i64, i8, i8, i8, i8, i8, i8, i8, i8, ptr, ptr, i64, i64, i64, ptr, ptr, ptr, ptr, ptr, i8, ptr, ptr, ptr, ptr, i64, ptr, ptr, ptr, ptr, ptr, ptr, ptr, %struct._arg_separators, ptr, %struct._zend_array, i16, i8, i8, %struct._zend_llist, [6 x %struct._zval_struct], i8, i8, i8, i8, i8, ptr, ptr, i64, [8 x i8], i8, i8, i8, i8, i8, i8, i32, i32, ptr, ptr, ptr, ptr, i64, i64, ptr, i64, ptr, ptr, i8, i8, i8, i8, i8, i8, i64, ptr, i64, i64 }
%struct._arg_separators = type { ptr, ptr }
%struct._zend_array = type { %struct._zend_refcounted_h, %union.anon.0, i32, %union.anon.1, i32, i32, i32, i32, i64, ptr }
%struct._zend_refcounted_h = type { i32, %union.anon }
%union.anon = type { i32 }
%union.anon.0 = type { i32 }
%union.anon.1 = type { ptr }
%struct._zend_llist = type { ptr, ptr, i64, i64, ptr, i8, ptr }
%struct._zval_struct = type { %union._zend_value, %union.anon.3, %union.anon.6 }
%union._zend_value = type { i64 }
%union.anon.3 = type { i32 }
%union.anon.6 = type { i32 }
%struct._sapi_module_struct = type { ptr, ptr, ptr, ptr, ptr, ptr, ptr, ptr, ptr, ptr, ptr, ptr, ptr, ptr, ptr, ptr, ptr, ptr, ptr, ptr, ptr, ptr, ptr, ptr, i32, i32, ptr, ptr, ptr, ptr, ptr, ptr, i32, ptr, ptr, ptr }
%struct._zend_string = type { %struct._zend_refcounted_h, i64, i64, [1 x i8] }

@.str.4 = private unnamed_addr constant [3 x i8] c"%s\00", align 1
@core_globals = dso_local global %struct._php_core_globals zeroinitializer, align 8
@.str.6 = private unnamed_addr constant [7 x i8] c"syslog\00", align 1
@.str.7 = private unnamed_addr constant [14 x i8] c"d-M-Y H:i:s e\00", align 1
@.str.8 = private unnamed_addr constant [10 x i8] c"[%s] %s%s\00", align 1
@.str.9 = private unnamed_addr constant [2 x i8] c"\0A\00", align 1
@sapi_module = external global %struct._sapi_module_struct, align 8

; Function Attrs: alwaysinline nounwind uwtable
define internal i32 @zval_gc_flags(i32 noundef %0) #5 {
  %2 = alloca i32, align 4
  store i32 %0, ptr %2, align 4, !tbaa !50
  %3 = load i32, ptr %2, align 4, !tbaa !50
  %4 = lshr i32 %3, 0
  %5 = and i32 %4, 1008
  ret i32 %5
}

; Function Attrs: alwaysinline nounwind uwtable
define internal void @zend_string_free(ptr noundef %0) #5 {
  %2 = alloca ptr, align 8
  store ptr %0, ptr %2, align 8, !tbaa !54
  %3 = load ptr, ptr %2, align 8, !tbaa !54
  %4 = getelementptr inbounds nuw %struct._zend_string, ptr %3, i32 0, i32 0
  %5 = getelementptr inbounds nuw %struct._zend_refcounted_h, ptr %4, i32 0, i32 1
  %6 = load i32, ptr %5, align 4, !tbaa !27
  %7 = call i32 @zval_gc_flags(i32 noundef %6)
  %8 = and i32 %7, 64
  %9 = icmp ne i32 %8, 0
  br i1 %9, label %23, label %10

10:                                               ; preds = %1
  %11 = load ptr, ptr %2, align 8, !tbaa !54
  %12 = getelementptr inbounds nuw %struct._zend_string, ptr %11, i32 0, i32 0
  %13 = getelementptr inbounds nuw %struct._zend_refcounted_h, ptr %12, i32 0, i32 1
  %14 = load i32, ptr %13, align 4, !tbaa !27
  %15 = call i32 @zval_gc_flags(i32 noundef %14)
  %16 = and i32 %15, 128
  %17 = icmp ne i32 %16, 0
  br i1 %17, label %18, label %20

18:                                               ; preds = %10
  %19 = load ptr, ptr %2, align 8, !tbaa !54
  call void @free(ptr noundef %19) #18
  br label %22

20:                                               ; preds = %10
  %21 = load ptr, ptr %2, align 8, !tbaa !54
  call void @_efree(ptr noundef %21)
  br label %22

22:                                               ; preds = %20, %18
  br label %23

23:                                               ; preds = %22, %1
  ret void
}

; Function Attrs: nounwind uwtable
define dso_local void @php_log_err_with_severity(ptr noundef %0, i32 noundef %1) #1 {
  %3 = alloca ptr, align 8
  %4 = alloca i32, align 4
  %5 = alloca i32, align 4
  %6 = alloca i64, align 8
  %7 = alloca i32, align 4
  %8 = alloca i32, align 4
  %9 = alloca ptr, align 8
  %10 = alloca i64, align 8
  %11 = alloca ptr, align 8
  %12 = alloca i64, align 8
  store ptr %0, ptr %3, align 8, !tbaa !14
  store i32 %1, ptr %4, align 4, !tbaa !50
  call void @llvm.lifetime.start.p0(i64 4, ptr %5) #18
  store i32 -1, ptr %5, align 4, !tbaa !50
  call void @llvm.lifetime.start.p0(i64 8, ptr %6) #18
  %13 = load i8, ptr getelementptr inbounds nuw (%struct._php_core_globals, ptr @core_globals, i32 0, i32 69), align 2, !tbaa !51, !range !48, !noundef !49
  %14 = trunc i8 %13 to i1
  br i1 %14, label %15, label %16

15:                                               ; preds = %2
  store i32 1, ptr %7, align 4
  br label %70

16:                                               ; preds = %2
  store i8 1, ptr getelementptr inbounds nuw (%struct._php_core_globals, ptr @core_globals, i32 0, i32 69), align 2, !tbaa !51
  %17 = load ptr, ptr getelementptr inbounds nuw (%struct._php_core_globals, ptr @core_globals, i32 0, i32 14), align 8, !tbaa !52
  %18 = icmp ne ptr %17, null
  br i1 %18, label %19, label %62

19:                                               ; preds = %16
  call void @llvm.lifetime.start.p0(i64 4, ptr %8) #18
  %20 = load ptr, ptr getelementptr inbounds nuw (%struct._php_core_globals, ptr @core_globals, i32 0, i32 14), align 8, !tbaa !52
  %21 = call i32 @strcmp(ptr noundef %20, ptr noundef @.str.6) #19
  %22 = icmp ne i32 %21, 0
  br i1 %22, label %26, label %23

23:                                               ; preds = %19
  %24 = load i32, ptr %4, align 4, !tbaa !50
  %25 = load ptr, ptr %3, align 8, !tbaa !14
  call void (i32, ptr, ...) @php_syslog(i32 noundef %24, ptr noundef @.str.4, ptr noundef %25)
  store i8 0, ptr getelementptr inbounds nuw (%struct._php_core_globals, ptr @core_globals, i32 0, i32 69), align 2, !tbaa !51
  store i32 1, ptr %7, align 4
  br label %59

26:                                               ; preds = %19
  store i32 420, ptr %8, align 4, !tbaa !50
  %27 = load i64, ptr getelementptr inbounds nuw (%struct._php_core_globals, ptr @core_globals, i32 0, i32 76), align 8, !tbaa !53
  %28 = icmp sgt i64 %27, 0
  br i1 %28, label %29, label %35

29:                                               ; preds = %26
  %30 = load i64, ptr getelementptr inbounds nuw (%struct._php_core_globals, ptr @core_globals, i32 0, i32 76), align 8, !tbaa !53
  %31 = icmp sle i64 %30, 511
  br i1 %31, label %32, label %35

32:                                               ; preds = %29
  %33 = load i64, ptr getelementptr inbounds nuw (%struct._php_core_globals, ptr @core_globals, i32 0, i32 76), align 8, !tbaa !53
  %34 = trunc i64 %33 to i32
  store i32 %34, ptr %8, align 4, !tbaa !50
  br label %35

35:                                               ; preds = %32, %29, %26
  %36 = load ptr, ptr getelementptr inbounds nuw (%struct._php_core_globals, ptr @core_globals, i32 0, i32 14), align 8, !tbaa !52
  %37 = load i32, ptr %8, align 4, !tbaa !50
  %38 = call i32 (ptr, i32, ...) @open(ptr noundef %36, i32 noundef 1089, i32 noundef %37)
  store i32 %38, ptr %5, align 4, !tbaa !50
  %39 = load i32, ptr %5, align 4, !tbaa !50
  %40 = icmp ne i32 %39, -1
  br i1 %40, label %41, label %58

41:                                               ; preds = %35
  call void @llvm.lifetime.start.p0(i64 8, ptr %9) #18
  call void @llvm.lifetime.start.p0(i64 8, ptr %10) #18
  call void @llvm.lifetime.start.p0(i64 8, ptr %11) #18
  %42 = call i64 @time(ptr noundef %6) #18
  %43 = load i64, ptr %6, align 8, !tbaa !15
  %44 = call ptr @php_format_date(ptr noundef @.str.7, i64 noundef 13, i64 noundef %43, i1 noundef zeroext true)
  store ptr %44, ptr %11, align 8, !tbaa !54
  %45 = load ptr, ptr %11, align 8, !tbaa !54
  %46 = getelementptr inbounds nuw %struct._zend_string, ptr %45, i32 0, i32 3
  %47 = getelementptr inbounds [1 x i8], ptr %46, i64 0, i64 0
  %48 = load ptr, ptr %3, align 8, !tbaa !14
  %49 = call i64 (ptr, i64, ptr, ...) @zend_spprintf(ptr noundef %9, i64 noundef 0, ptr noundef @.str.8, ptr noundef %47, ptr noundef %48, ptr noundef @.str.9)
  store i64 %49, ptr %10, align 8, !tbaa !15
  call void @llvm.lifetime.start.p0(i64 8, ptr %12) #18
  %50 = load i32, ptr %5, align 4, !tbaa !50
  %51 = load ptr, ptr %9, align 8, !tbaa !14
  %52 = load i64, ptr %10, align 8, !tbaa !15
  %53 = call i64 @write(i32 noundef %50, ptr noundef %51, i64 noundef %52)
  store i64 %53, ptr %12, align 8, !tbaa !15
  call void @llvm.lifetime.end.p0(i64 8, ptr %12) #18
  %54 = load ptr, ptr %9, align 8, !tbaa !14
  call void @_efree(ptr noundef %54)
  %55 = load ptr, ptr %11, align 8, !tbaa !54
  call void @zend_string_free(ptr noundef %55)
  %56 = load i32, ptr %5, align 4, !tbaa !50
  %57 = call i32 @close(i32 noundef %56)
  store i8 0, ptr getelementptr inbounds nuw (%struct._php_core_globals, ptr @core_globals, i32 0, i32 69), align 2, !tbaa !51
  store i32 1, ptr %7, align 4
  call void @llvm.lifetime.end.p0(i64 8, ptr %11) #18
  call void @llvm.lifetime.end.p0(i64 8, ptr %10) #18
  call void @llvm.lifetime.end.p0(i64 8, ptr %9) #18
  br label %59

58:                                               ; preds = %35
  store i32 0, ptr %7, align 4
  br label %59

59:                                               ; preds = %58, %41, %23
  call void @llvm.lifetime.end.p0(i64 4, ptr %8) #18
  %60 = load i32, ptr %7, align 4
  switch i32 %60, label %70 [
    i32 0, label %61
  ]

61:                                               ; preds = %59
  br label %62

62:                                               ; preds = %61, %16
  %63 = load ptr, ptr getelementptr inbounds nuw (%struct._sapi_module_struct, ptr @sapi_module, i32 0, i32 17), align 8, !tbaa !55
  %64 = icmp ne ptr %63, null
  br i1 %64, label %65, label %69

65:                                               ; preds = %62
  %66 = load ptr, ptr getelementptr inbounds nuw (%struct._sapi_module_struct, ptr @sapi_module, i32 0, i32 17), align 8, !tbaa !55
  %67 = load ptr, ptr %3, align 8, !tbaa !14
  %68 = load i32, ptr %4, align 4, !tbaa !50
  call void %66(ptr noundef %67, i32 noundef %68)
  br label %69

69:                                               ; preds = %65, %62
  store i8 0, ptr getelementptr inbounds nuw (%struct._php_core_globals, ptr @core_globals, i32 0, i32 69), align 2, !tbaa !51
  store i32 0, ptr %7, align 4
  br label %70

70:                                               ; preds = %69, %59, %15
  call void @llvm.lifetime.end.p0(i64 8, ptr %6) #18
  call void @llvm.lifetime.end.p0(i64 4, ptr %5) #18
  %71 = load i32, ptr %7, align 4
  switch i32 %71, label %73 [
    i32 0, label %72
    i32 1, label %72
  ]

72:                                               ; preds = %70, %70
  ret void

73:                                               ; preds = %70
  unreachable
}