; Function Attrs: nounwind uwtable
define dso_local void @php_log_err_with_severity(ptr noundef %0, i32 noundef %1) local_unnamed_addr #2 {
  %3 = alloca i64, align 8
  %4 = alloca ptr, align 8
  call void @llvm.lifetime.start.p0(i64 8, ptr nonnull %3) #28
  %5 = load i8, ptr getelementptr inbounds nuw (i8, ptr @core_globals, i64 578), align 2, !tbaa !44, !range !45, !noundef !46
  %6 = trunc nuw i8 %5 to i1
  br i1 %6, label %.critedge, label %7

7:                                                ; preds = %2
  store i8 1, ptr getelementptr inbounds nuw (i8, ptr @core_globals, i64 578), align 2, !tbaa !44
  %8 = load ptr, ptr getelementptr inbounds nuw (i8, ptr @core_globals, i64 56), align 8, !tbaa !47
  %.not = icmp eq ptr %8, null
  br i1 %.not, label %34, label %9

9:                                                ; preds = %7
  %10 = tail call i32 @strcmp(ptr noundef nonnull dereferenceable(1) %8, ptr noundef nonnull dereferenceable(7) @.str.6) #29
  %.not18 = icmp eq i32 %10, 0
  br i1 %.not18, label %11, label %12

11:                                               ; preds = %9
  tail call void (i32, ptr, ...) @php_syslog(i32 noundef %1, ptr noundef nonnull @.str.4, ptr noundef %0) #28
  store i8 0, ptr getelementptr inbounds nuw (i8, ptr @core_globals, i64 578), align 2, !tbaa !44
  br label %.critedge

12:                                               ; preds = %9
  %13 = load i64, ptr getelementptr inbounds nuw (i8, ptr @core_globals, i64 608), align 8, !tbaa !48
  %14 = add i64 %13, -1
  %or.cond = icmp ult i64 %14, 511
  %15 = trunc nuw nsw i64 %13 to i32
  %spec.select = select i1 %or.cond, i32 %15, i32 420
  %16 = tail call i32 (ptr, i32, ...) @open(ptr noundef nonnull %8, i32 noundef 1089, i32 noundef %spec.select) #28
  %.not19 = icmp eq i32 %16, -1
  br i1 %.not19, label %34, label %17

17:                                               ; preds = %12
  call void @llvm.lifetime.start.p0(i64 8, ptr nonnull %4) #28
  %18 = call i64 @time(ptr noundef nonnull %3) #28
  %19 = load i64, ptr %3, align 8, !tbaa !49
  %20 = call ptr @php_format_date(ptr noundef nonnull @.str.7, i64 noundef 13, i64 noundef %19, i1 noundef zeroext true) #28
  %21 = getelementptr inbounds nuw i8, ptr %20, i64 24
  %22 = call i64 (ptr, i64, ptr, ...) @zend_spprintf(ptr noundef nonnull %4, i64 noundef 0, ptr noundef nonnull @.str.8, ptr noundef nonnull %21, ptr noundef %0, ptr noundef nonnull @.str.9) #28
  %23 = load ptr, ptr %4, align 8, !tbaa !12
  %24 = call i64 @write(i32 noundef %16, ptr noundef %23, i64 noundef %22) #28
  %25 = load ptr, ptr %4, align 8, !tbaa !12
  call void @_efree(ptr noundef %25) #28
  %26 = getelementptr inbounds nuw i8, ptr %20, i64 4
  %27 = load i32, ptr %26, align 4, !tbaa !24
  %28 = and i32 %27, 64
  %.not.i = icmp eq i32 %28, 0
  br i1 %.not.i, label %29, label %zend_string_free.exit

29:                                               ; preds = %17
  %30 = and i32 %27, 128
  %.not4.i = icmp eq i32 %30, 0
  br i1 %.not4.i, label %32, label %31

31:                                               ; preds = %29
  call void @free(ptr noundef nonnull %20) #28
  br label %zend_string_free.exit

32:                                               ; preds = %29
  call void @_efree(ptr noundef nonnull %20) #28
  br label %zend_string_free.exit

zend_string_free.exit:                            ; preds = %17, %31, %32
  %33 = call i32 @close(i32 noundef %16) #28
  store i8 0, ptr getelementptr inbounds nuw (i8, ptr @core_globals, i64 578), align 2, !tbaa !44
  call void @llvm.lifetime.end.p0(i64 8, ptr nonnull %4) #28
  br label %.critedge

34:                                               ; preds = %12, %7
  %35 = load ptr, ptr getelementptr inbounds nuw (i8, ptr @sapi_module, i64 136), align 8, !tbaa !50
  %.not20 = icmp eq ptr %35, null
  br i1 %.not20, label %37, label %36

36:                                               ; preds = %34
  tail call void %35(ptr noundef %0, i32 noundef %1) #28
  br label %37

37:                                               ; preds = %36, %34
  store i8 0, ptr getelementptr inbounds nuw (i8, ptr @core_globals, i64 578), align 2, !tbaa !44
  br label %.critedge

.critedge:                                        ; preds = %zend_string_free.exit, %11, %2, %37
  call void @llvm.lifetime.end.p0(i64 8, ptr nonnull %3) #28
  ret void
}